target datalayout = "e-m:e-p270:32:32-p271:32:32-p272:64:64-i64:64-i128:128-f80:128-n8:16:32:64-S128"
target triple = "x86_64-pc-linux-gnu"

%struct.H5VL_loc_params_t = type { i32, i32, %union.anon }
%union.anon = type { %struct.H5VL_loc_by_idx }
%struct.H5VL_loc_by_idx = type { ptr, i32, i32, i64, i64 }
%struct.H5VL_link_specific_args_t = type { i32, %union.anon.7 }
%union.anon.7 = type { %struct.H5VL_link_iterate_args_t }
%struct.H5VL_link_iterate_args_t = type { i8, i32, i32, ptr, ptr, ptr }

@H5_libterm_g = external global i8, align 1
@.str = private unnamed_addr constant [97 x i8] c"generated/home/dtcxzyw/WorkSpace/Projects/compilers/llvm-opt-benchmark/bench/hdf5/hdf5/src/H5L.c\00", align 1
@H5L_init_g = external global i8, align 1
@H5E_CANTSET_g = external global i64, align 8
@H5E_ARGS_g = external global i64, align 8
@H5E_BADVALUE_g = external global i64, align 8
@H5E_LINK_g = external global i64, align 8
@H5P_LST_DATASET_XFER_ID_g = external global i64, align 8
@.str.58 = private unnamed_addr constant [29 x i8] c"invalid index type specified\00", align 1
@.str.59 = private unnamed_addr constant [34 x i8] c"invalid iteration order specified\00", align 1
@H5E_BADITER_g = external global i64, align 8
@.str.84 = private unnamed_addr constant [22 x i8] c"no operator specified\00", align 1
@.str.85 = private unnamed_addr constant [22 x i8] c"link iteration failed\00", align 1
@.str.86 = private unnamed_addr constant [17 x i8] c"invalid argument\00", align 1
@.str.98 = private unnamed_addr constant [34 x i8] c"can't set object access arguments\00", align 1
@__func__.H5L__iterate_api_common = private unnamed_addr constant [24 x i8] c"H5L__iterate_api_common\00", align 1

; Function Attrs: nounwind uwtable
define internal i32 @H5L__iterate_api_common(i64 noundef %0, i32 noundef %1, i32 noundef %2, ptr noundef %3, ptr noundef %4, ptr noundef %5, ptr noundef %6, ptr noundef %7) #0 {
  %9 = alloca i64, align 8
  %10 = alloca i32, align 4
  %11 = alloca i32, align 4
  %12 = alloca ptr, align 8
  %13 = alloca ptr, align 8
  %14 = alloca ptr, align 8
  %15 = alloca ptr, align 8
  %16 = alloca ptr, align 8
  %17 = alloca ptr, align 8
  %18 = alloca ptr, align 8
  %19 = alloca %struct.H5VL_link_specific_args_t, align 8
  %20 = alloca %struct.H5VL_loc_params_t, align 8
  %21 = alloca i32, align 4
  %22 = alloca i32, align 4
  %23 = alloca i8, align 1
  store i64 %0, ptr %9, align 8, !tbaa !3
  store i32 %1, ptr %10, align 4, !tbaa !12
  store i32 %2, ptr %11, align 4, !tbaa !12
  store ptr %3, ptr %12, align 8, !tbaa !41
  store ptr %4, ptr %13, align 8, !tbaa !22
  store ptr %5, ptr %14, align 8, !tbaa !22
  store ptr %6, ptr %15, align 8, !tbaa !22
  store ptr %7, ptr %16, align 8, !tbaa !23
  call void @llvm.lifetime.start.p0(i64 8, ptr %17) #8
  store ptr null, ptr %17, align 8, !tbaa !10
  call void @llvm.lifetime.start.p0(i64 8, ptr %18) #8
  %24 = load ptr, ptr %16, align 8, !tbaa !23
  %25 = icmp ne ptr %24, null
  br i1 %25, label %26, label %28

26:                                               ; preds = %8
  %27 = load ptr, ptr %16, align 8, !tbaa !23
  br label %29

28:                                               ; preds = %8
  br label %29

29:                                               ; preds = %28, %26
  %30 = phi ptr [ %27, %26 ], [ %17, %28 ]
  store ptr %30, ptr %18, align 8, !tbaa !23
  call void @llvm.lifetime.start.p0(i64 48, ptr %19) #8
  call void @llvm.lifetime.start.p0(i64 40, ptr %20) #8
  call void @llvm.lifetime.start.p0(i64 4, ptr %21) #8
  call void @llvm.lifetime.start.p0(i64 4, ptr %22) #8
  store i32 0, ptr %22, align 4, !tbaa !12
  call void @llvm.lifetime.start.p0(i64 1, ptr %23) #8
  store i8 0, ptr %23, align 1, !tbaa !14
  %31 = load i8, ptr @H5L_init_g, align 1, !tbaa !14, !range !16, !noundef !17
  %32 = trunc i8 %31 to i1
  br i1 %32, label %37, label %33

33:                                               ; preds = %29
  %34 = load i8, ptr @H5_libterm_g, align 1, !tbaa !14, !range !16, !noundef !17
  %35 = trunc i8 %34 to i1
  %36 = xor i1 %35, true
  br label %37

37:                                               ; preds = %33, %29
  %38 = phi i1 [ true, %29 ], [ %36, %33 ]
  %39 = xor i1 %38, true
  %40 = xor i1 %39, true
  %41 = zext i1 %40 to i32
  %42 = sext i32 %41 to i64
  %43 = call i64 @llvm.expect.i64(i64 %42, i64 1)
  %44 = icmp ne i64 %43, 0
  br i1 %44, label %45, label %214

45:                                               ; preds = %37
  %46 = load i64, ptr %9, align 8, !tbaa !3
  %47 = call i32 @H5I_get_type(i64 noundef %46)
  store i32 %47, ptr %21, align 4, !tbaa !12
  %48 = load i32, ptr %21, align 4, !tbaa !12
  %49 = icmp eq i32 2, %48
  br i1 %49, label %72, label %50

50:                                               ; preds = %45
  %51 = load i32, ptr %21, align 4, !tbaa !12
  %52 = icmp eq i32 1, %51
  br i1 %52, label %72, label %53

53:                                               ; preds = %50
  br label %54

54:                                               ; preds = %53
  br label %55

55:                                               ; preds = %54
  br label %56

56:                                               ; preds = %55
  %57 = load i64, ptr @H5E_ARGS_g, align 8, !tbaa !3
  %58 = load i64, ptr @H5E_BADVALUE_g, align 8, !tbaa !3
  %59 = call i32 (ptr, ptr, i32, i64, i64, ptr, ...) @H5E_printf_stack(ptr noundef @.str, ptr noundef @__func__.H5L__iterate_api_common, i32 noundef 1549, i64 noundef %57, i64 noundef %58, ptr noundef @.str.86)
  br label %60

60:                                               ; preds = %56
  br label %61

61:                                               ; preds = %60
  store i8 1, ptr %23, align 1, !tbaa !14
  %62 = load i8, ptr %23, align 1, !tbaa !14, !range !16, !noundef !17
  %63 = trunc i8 %62 to i1
  %64 = zext i1 %63 to i8
  store i8 %64, ptr %23, align 1, !tbaa !14
  br label %65

65:                                               ; preds = %61
  br label %66

66:                                               ; preds = %65
  br label %67

67:                                               ; preds = %66
  store i32 -1, ptr %22, align 4, !tbaa !12
  br label %213

68:                                               ; No predecessors!
  br label %69

69:                                               ; preds = %68
  br label %70

70:                                               ; preds = %69
  br label %71

71:                                               ; preds = %70
  br label %72

72:                                               ; preds = %71, %50, %45
  %73 = load i32, ptr %10, align 4, !tbaa !12
  %74 = icmp sle i32 %73, -1
  br i1 %74, label %78, label %75

75:                                               ; preds = %72
  %76 = load i32, ptr %10, align 4, !tbaa !12
  %77 = icmp sge i32 %76, 2
  br i1 %77, label %78, label %97

78:                                               ; preds = %75, %72
  br label %79

79:                                               ; preds = %78
  br label %80

80:                                               ; preds = %79
  br label %81

81:                                               ; preds = %80
  %82 = load i64, ptr @H5E_ARGS_g, align 8, !tbaa !3
  %83 = load i64, ptr @H5E_BADVALUE_g, align 8, !tbaa !3
  %84 = call i32 (ptr, ptr, i32, i64, i64, ptr, ...) @H5E_printf_stack(ptr noundef @.str, ptr noundef @__func__.H5L__iterate_api_common, i32 noundef 1551, i64 noundef %82, i64 noundef %83, ptr noundef @.str.58)
  br label %85

85:                                               ; preds = %81
  br label %86

86:                                               ; preds = %85
  store i8 1, ptr %23, align 1, !tbaa !14
  %87 = load i8, ptr %23, align 1, !tbaa !14, !range !16, !noundef !17
  %88 = trunc i8 %87 to i1
  %89 = zext i1 %88 to i8
  store i8 %89, ptr %23, align 1, !tbaa !14
  br label %90

90:                                               ; preds = %86
  br label %91

91:                                               ; preds = %90
  br label %92

92:                                               ; preds = %91
  store i32 -1, ptr %22, align 4, !tbaa !12
  br label %213

93:                                               ; No predecessors!
  br label %94

94:                                               ; preds = %93
  br label %95

95:                                               ; preds = %94
  br label %96

96:                                               ; preds = %95
  br label %97

97:                                               ; preds = %96, %75
  %98 = load i32, ptr %11, align 4, !tbaa !12
  %99 = icmp sle i32 %98, -1
  br i1 %99, label %103, label %100

100:                                              ; preds = %97
  %101 = load i32, ptr %11, align 4, !tbaa !12
  %102 = icmp sge i32 %101, 3
  br i1 %102, label %103, label %122

103:                                              ; preds = %100, %97
  br label %104

104:                                              ; preds = %103
  br label %105

105:                                              ; preds = %104
  br label %106

106:                                              ; preds = %105
  %107 = load i64, ptr @H5E_ARGS_g, align 8, !tbaa !3
  %108 = load i64, ptr @H5E_BADVALUE_g, align 8, !tbaa !3
  %109 = call i32 (ptr, ptr, i32, i64, i64, ptr, ...) @H5E_printf_stack(ptr noundef @.str, ptr noundef @__func__.H5L__iterate_api_common, i32 noundef 1553, i64 noundef %107, i64 noundef %108, ptr noundef @.str.59)
  br label %110

110:                                              ; preds = %106
  br label %111

111:                                              ; preds = %110
  store i8 1, ptr %23, align 1, !tbaa !14
  %112 = load i8, ptr %23, align 1, !tbaa !14, !range !16, !noundef !17
  %113 = trunc i8 %112 to i1
  %114 = zext i1 %113 to i8
  store i8 %114, ptr %23, align 1, !tbaa !14
  br label %115

115:                                              ; preds = %111
  br label %116

116:                                              ; preds = %115
  br label %117

117:                                              ; preds = %116
  store i32 -1, ptr %22, align 4, !tbaa !12
  br label %213

118:                                              ; No predecessors!
  br label %119

119:                                              ; preds = %118
  br label %120

120:                                              ; preds = %119
  br label %121

121:                                              ; preds = %120
  br label %122

122:                                              ; preds = %121, %100
  %123 = load ptr, ptr %13, align 8, !tbaa !22
  %124 = icmp ne ptr %123, null
  br i1 %124, label %144, label %125

125:                                              ; preds = %122
  br label %126

126:                                              ; preds = %125
  br label %127

127:                                              ; preds = %126
  br label %128

128:                                              ; preds = %127
  %129 = load i64, ptr @H5E_ARGS_g, align 8, !tbaa !3
  %130 = load i64, ptr @H5E_BADVALUE_g, align 8, !tbaa !3
  %131 = call i32 (ptr, ptr, i32, i64, i64, ptr, ...) @H5E_printf_stack(ptr noundef @.str, ptr noundef @__func__.H5L__iterate_api_common, i32 noundef 1555, i64 noundef %129, i64 noundef %130, ptr noundef @.str.84)
  br label %132

132:                                              ; preds = %128
  br label %133

133:                                              ; preds = %132
  store i8 1, ptr %23, align 1, !tbaa !14
  %134 = load i8, ptr %23, align 1, !tbaa !14, !range !16, !noundef !17
  %135 = trunc i8 %134 to i1
  %136 = zext i1 %135 to i8
  store i8 %136, ptr %23, align 1, !tbaa !14
  br label %137

137:                                              ; preds = %133
  br label %138

138:                                              ; preds = %137
  br label %139

139:                                              ; preds = %138
  store i32 -1, ptr %22, align 4, !tbaa !12
  br label %213

140:                                              ; No predecessors!
  br label %141

141:                                              ; preds = %140
  br label %142

142:                                              ; preds = %141
  br label %143

143:                                              ; preds = %142
  br label %144

144:                                              ; preds = %143, %122
  %145 = load i64, ptr %9, align 8, !tbaa !3
  %146 = load ptr, ptr %18, align 8, !tbaa !23
  %147 = call i32 @H5VL_setup_self_args(i64 noundef %145, ptr noundef %146, ptr noundef %20)
  %148 = icmp slt i32 %147, 0
  br i1 %148, label %149, label %168

149:                                              ; preds = %144
  br label %150

150:                                              ; preds = %149
  br label %151

151:                                              ; preds = %150
  br label %152

152:                                              ; preds = %151
  %153 = load i64, ptr @H5E_LINK_g, align 8, !tbaa !3
  %154 = load i64, ptr @H5E_CANTSET_g, align 8, !tbaa !3
  %155 = call i32 (ptr, ptr, i32, i64, i64, ptr, ...) @H5E_printf_stack(ptr noundef @.str, ptr noundef @__func__.H5L__iterate_api_common, i32 noundef 1559, i64 noundef %153, i64 noundef %154, ptr noundef @.str.98)
  br label %156

156:                                              ; preds = %152
  br label %157

157:                                              ; preds = %156
  store i8 1, ptr %23, align 1, !tbaa !14
  %158 = load i8, ptr %23, align 1, !tbaa !14, !range !16, !noundef !17
  %159 = trunc i8 %158 to i1
  %160 = zext i1 %159 to i8
  store i8 %160, ptr %23, align 1, !tbaa !14
  br label %161

161:                                              ; preds = %157
  br label %162

162:                                              ; preds = %161
  br label %163

163:                                              ; preds = %162
  store i32 -1, ptr %22, align 4, !tbaa !12
  br label %213

164:                                              ; No predecessors!
  br label %165

165:                                              ; preds = %164
  br label %166

166:                                              ; preds = %165
  br label %167

167:                                              ; preds = %166
  br label %168

168:                                              ; preds = %167, %144
  %169 = getelementptr inbounds nuw %struct.H5VL_link_specific_args_t, ptr %19, i32 0, i32 0
  store i32 2, ptr %169, align 8, !tbaa !31
  %170 = getelementptr inbounds nuw %struct.H5VL_link_specific_args_t, ptr %19, i32 0, i32 1
  %171 = getelementptr inbounds nuw %struct.H5VL_link_iterate_args_t, ptr %170, i32 0, i32 0
  store i8 0, ptr %171, align 8, !tbaa !18
  %172 = load i32, ptr %10, align 4, !tbaa !12
  %173 = getelementptr inbounds nuw %struct.H5VL_link_specific_args_t, ptr %19, i32 0, i32 1
  %174 = getelementptr inbounds nuw %struct.H5VL_link_iterate_args_t, ptr %173, i32 0, i32 1
  store i32 %172, ptr %174, align 4, !tbaa !18
  %175 = load i32, ptr %11, align 4, !tbaa !12
  %176 = getelementptr inbounds nuw %struct.H5VL_link_specific_args_t, ptr %19, i32 0, i32 1
  %177 = getelementptr inbounds nuw %struct.H5VL_link_iterate_args_t, ptr %176, i32 0, i32 2
  store i32 %175, ptr %177, align 8, !tbaa !18
  %178 = load ptr, ptr %12, align 8, !tbaa !41
  %179 = getelementptr inbounds nuw %struct.H5VL_link_specific_args_t, ptr %19, i32 0, i32 1
  %180 = getelementptr inbounds nuw %struct.H5VL_link_iterate_args_t, ptr %179, i32 0, i32 3
  store ptr %178, ptr %180, align 8, !tbaa !18
  %181 = load ptr, ptr %13, align 8, !tbaa !22
  %182 = getelementptr inbounds nuw %struct.H5VL_link_specific_args_t, ptr %19, i32 0, i32 1
  %183 = getelementptr inbounds nuw %struct.H5VL_link_iterate_args_t, ptr %182, i32 0, i32 4
  store ptr %181, ptr %183, align 8, !tbaa !18
  %184 = load ptr, ptr %14, align 8, !tbaa !22
  %185 = getelementptr inbounds nuw %struct.H5VL_link_specific_args_t, ptr %19, i32 0, i32 1
  %186 = getelementptr inbounds nuw %struct.H5VL_link_iterate_args_t, ptr %185, i32 0, i32 5
  store ptr %184, ptr %186, align 8, !tbaa !18
  %187 = load ptr, ptr %18, align 8, !tbaa !23
  %188 = load ptr, ptr %187, align 8, !tbaa !10
  %189 = load i64, ptr @H5P_LST_DATASET_XFER_ID_g, align 8, !tbaa !3
  %190 = load ptr, ptr %15, align 8, !tbaa !22
  %191 = call i32 @H5VL_link_specific(ptr noundef %188, ptr noundef %20, ptr noundef %19, i64 noundef %189, ptr noundef %190)
  store i32 %191, ptr %22, align 4, !tbaa !12
  %192 = icmp slt i32 %191, 0
  br i1 %192, label %193, label %212

193:                                              ; preds = %168
  br label %194

194:                                              ; preds = %193
  br label %195

195:                                              ; preds = %194
  br label %196

196:                                              ; preds = %195
  %197 = load i64, ptr @H5E_LINK_g, align 8, !tbaa !3
  %198 = load i64, ptr @H5E_BADITER_g, align 8, !tbaa !3
  %199 = call i32 (ptr, ptr, i32, i64, i64, ptr, ...) @H5E_printf_stack(ptr noundef @.str, ptr noundef @__func__.H5L__iterate_api_common, i32 noundef 1573, i64 noundef %197, i64 noundef %198, ptr noundef @.str.85)
  br label %200

200:                                              ; preds = %196
  br label %201

201:                                              ; preds = %200
  store i8 1, ptr %23, align 1, !tbaa !14
  %202 = load i8, ptr %23, align 1, !tbaa !14, !range !16, !noundef !17
  %203 = trunc i8 %202 to i1
  %204 = zext i1 %203 to i8
  store i8 %204, ptr %23, align 1, !tbaa !14
  br label %205

205:                                              ; preds = %201
  br label %206

206:                                              ; preds = %205
  br label %207

207:                                              ; preds = %206
  store i32 -1, ptr %22, align 4, !tbaa !12
  br label %213

208:                                              ; No predecessors!
  br label %209

209:                                              ; preds = %208
  br label %210

210:                                              ; preds = %209
  br label %211

211:                                              ; preds = %210
  br label %212

212:                                              ; preds = %211, %168
  br label %213

213:                                              ; preds = %212, %207, %163, %139, %117, %92, %67
  br label %214

214:                                              ; preds = %213, %37
  %215 = load i32, ptr %22, align 4, !tbaa !12
  call void @llvm.lifetime.end.p0(i64 1, ptr %23) #8
  call void @llvm.lifetime.end.p0(i64 4, ptr %22) #8
  call void @llvm.lifetime.end.p0(i64 4, ptr %21) #8
  call void @llvm.lifetime.end.p0(i64 40, ptr %20) #8
  call void @llvm.lifetime.end.p0(i64 48, ptr %19) #8
  call void @llvm.lifetime.end.p0(i64 8, ptr %18) #8
  call void @llvm.lifetime.end.p0(i64 8, ptr %17) #8
  ret i32 %215
}