; Function Attrs: nounwind uwtable
define internal fastcc range(i32 -1, -2147483648) i32 @H5L__iterate_api_common(i64 noundef %0, i32 noundef %1, i32 noundef %2, ptr noundef %3, ptr noundef %4, ptr noundef %5, ptr noundef %6, ptr noundef %7) unnamed_addr #0 {
  %9 = alloca ptr, align 8
  %10 = alloca %struct.H5VL_link_specific_args_t, align 8
  %11 = alloca %struct.H5VL_loc_params_t, align 8
  call void @llvm.lifetime.start.p0(i64 8, ptr nonnull %9) #7
  store ptr null, ptr %9, align 8, !tbaa !20
  %.not = icmp eq ptr %7, null
  %12 = select i1 %.not, ptr %9, ptr %7
  call void @llvm.lifetime.start.p0(i64 48, ptr nonnull %10) #7
  call void @llvm.lifetime.start.p0(i64 40, ptr nonnull %11) #7
  %13 = load i8, ptr @H5L_init_g, align 1, !tbaa !7, !range !9, !noundef !10
  %14 = trunc nuw i8 %13 to i1
  %15 = load i8, ptr @H5_libterm_g, align 1, !range !9
  %16 = trunc nuw i8 %15 to i1
  %17 = xor i1 %16, true
  %18 = select i1 %14, i1 true, i1 %17
  br i1 %18, label %19, label %63, !prof !11

19:                                               ; preds = %8
  %20 = tail call i32 @H5I_get_type(i64 noundef %0) #7
  %21 = add i32 %20, -1
  %or.cond = icmp ult i32 %21, 2
  br i1 %or.cond, label %26, label %22

22:                                               ; preds = %19
  %23 = load i64, ptr @H5E_ARGS_g, align 8, !tbaa !3
  %24 = load i64, ptr @H5E_BADVALUE_g, align 8, !tbaa !3
  %25 = tail call i32 (ptr, ptr, i32, i64, i64, ptr, ...) @H5E_printf_stack(ptr noundef nonnull @.str, ptr noundef nonnull @__func__.H5L__iterate_api_common, i32 noundef 1549, i64 noundef %23, i64 noundef %24, ptr noundef nonnull @.str.86) #7
  br label %63

26:                                               ; preds = %19
  %or.cond3 = icmp ugt i32 %1, 1
  br i1 %or.cond3, label %27, label %31

27:                                               ; preds = %26
  %28 = load i64, ptr @H5E_ARGS_g, align 8, !tbaa !3
  %29 = load i64, ptr @H5E_BADVALUE_g, align 8, !tbaa !3
  %30 = tail call i32 (ptr, ptr, i32, i64, i64, ptr, ...) @H5E_printf_stack(ptr noundef nonnull @.str, ptr noundef nonnull @__func__.H5L__iterate_api_common, i32 noundef 1551, i64 noundef %28, i64 noundef %29, ptr noundef nonnull @.str.58) #7
  br label %63

31:                                               ; preds = %26
  %or.cond5 = icmp ugt i32 %2, 2
  br i1 %or.cond5, label %32, label %36

32:                                               ; preds = %31
  %33 = load i64, ptr @H5E_ARGS_g, align 8, !tbaa !3
  %34 = load i64, ptr @H5E_BADVALUE_g, align 8, !tbaa !3
  %35 = tail call i32 (ptr, ptr, i32, i64, i64, ptr, ...) @H5E_printf_stack(ptr noundef nonnull @.str, ptr noundef nonnull @__func__.H5L__iterate_api_common, i32 noundef 1553, i64 noundef %33, i64 noundef %34, ptr noundef nonnull @.str.59) #7
  br label %63

36:                                               ; preds = %31
  %.not34 = icmp eq ptr %4, null
  br i1 %.not34, label %37, label %41

37:                                               ; preds = %36
  %38 = load i64, ptr @H5E_ARGS_g, align 8, !tbaa !3
  %39 = load i64, ptr @H5E_BADVALUE_g, align 8, !tbaa !3
  %40 = tail call i32 (ptr, ptr, i32, i64, i64, ptr, ...) @H5E_printf_stack(ptr noundef nonnull @.str, ptr noundef nonnull @__func__.H5L__iterate_api_common, i32 noundef 1555, i64 noundef %38, i64 noundef %39, ptr noundef nonnull @.str.84) #7
  br label %63

41:                                               ; preds = %36
  %42 = call i32 @H5VL_setup_self_args(i64 noundef %0, ptr noundef nonnull %12, ptr noundef nonnull %11) #7
  %43 = icmp slt i32 %42, 0
  br i1 %43, label %44, label %48

44:                                               ; preds = %41
  %45 = load i64, ptr @H5E_LINK_g, align 8, !tbaa !3
  %46 = load i64, ptr @H5E_CANTSET_g, align 8, !tbaa !3
  %47 = call i32 (ptr, ptr, i32, i64, i64, ptr, ...) @H5E_printf_stack(ptr noundef nonnull @.str, ptr noundef nonnull @__func__.H5L__iterate_api_common, i32 noundef 1559, i64 noundef %45, i64 noundef %46, ptr noundef nonnull @.str.98) #7
  br label %63

48:                                               ; preds = %41
  store i32 2, ptr %10, align 8, !tbaa !28
  %49 = getelementptr inbounds nuw i8, ptr %10, i64 8
  store i8 0, ptr %49, align 8, !tbaa !14
  %50 = getelementptr inbounds nuw i8, ptr %10, i64 12
  store i32 %1, ptr %50, align 4, !tbaa !14
  %51 = getelementptr inbounds nuw i8, ptr %10, i64 16
  store i32 %2, ptr %51, align 8, !tbaa !14
  %52 = getelementptr inbounds nuw i8, ptr %10, i64 24
  store ptr %3, ptr %52, align 8, !tbaa !14
  %53 = getelementptr inbounds nuw i8, ptr %10, i64 32
  store ptr %4, ptr %53, align 8, !tbaa !14
  %54 = getelementptr inbounds nuw i8, ptr %10, i64 40
  store ptr %5, ptr %54, align 8, !tbaa !14
  %55 = load ptr, ptr %12, align 8, !tbaa !20
  %56 = load i64, ptr @H5P_LST_DATASET_XFER_ID_g, align 8, !tbaa !3
  %57 = call i32 @H5VL_link_specific(ptr noundef %55, ptr noundef nonnull %11, ptr noundef nonnull %10, i64 noundef %56, ptr noundef %6) #7
  %58 = icmp slt i32 %57, 0
  br i1 %58, label %59, label %63

59:                                               ; preds = %48
  %60 = load i64, ptr @H5E_LINK_g, align 8, !tbaa !3
  %61 = load i64, ptr @H5E_BADITER_g, align 8, !tbaa !3
  %62 = call i32 (ptr, ptr, i32, i64, i64, ptr, ...) @H5E_printf_stack(ptr noundef nonnull @.str, ptr noundef nonnull @__func__.H5L__iterate_api_common, i32 noundef 1573, i64 noundef %60, i64 noundef %61, ptr noundef nonnull @.str.85) #7
  br label %63

63:                                               ; preds = %22, %27, %32, %37, %44, %59, %48, %8
  %.0 = phi i32 [ -1, %27 ], [ -1, %32 ], [ -1, %44 ], [ -1, %59 ], [ %57, %48 ], [ -1, %37 ], [ -1, %22 ], [ 0, %8 ]
  call void @llvm.lifetime.end.p0(i64 40, ptr nonnull %11) #7
  call void @llvm.lifetime.end.p0(i64 48, ptr nonnull %10) #7
  call void @llvm.lifetime.end.p0(i64 8, ptr nonnull %9) #7
  ret i32 %.0
}